(lp1
(lp2
I29
aI10
aI0
aa(lp3
I35
aI12
aI0
aa(lp4
I23
aI2
aI0
aa(lp5
I50
aI14
aI0
aa(lp6
I27
aI6
aI0
aa(lp7
I27
aI5
aI0
aa(lp8
I55
aI29
aI0
aa(lp9
I23
aI4
aI0
aa(lp10
I12
aI5
aI0
aa(lp11
I26
aI4
aI0
aa(lp12
I23
aI12
aI0
aa(lp13
I27
aI9
aI0
aa(lp14
I19
aI6
aI0
aa(lp15
I64
aI4
aI0
aa(lp16
I21
aI8
aI0
aa(lp17
I39
aI14
aI0
aa(lp18
I25
aI9
aI0
aa(lp19
I36
aI8
aI0
aa(lp20
I12
aI6
aI0
aa(lp21
I33
aI3
aI0
aa(lp22
I31
aI10
aI0
aa(lp23
I22
aI11
aI0
aa(lp24
I53
aI10
aI0
aa(lp25
I20
aI0
aI0
aa(lp26
I30
aI0
aI0
aa(lp27
I33
aI1
aI0
aa(lp28
I26
aI5
aI0
aa(lp29
I32
aI12
aI0
aa(lp30
I28
aI0
aI0
aa(lp31
I36
aI25
aI0
aa(lp32
I43
aI28
aI0
aa(lp33
I18
aI1
aI0
aa(lp34
I14
aI3
aI0
aa(lp35
I17
aI3
aI0
aa(lp36
I80
aI23
aI0
aa(lp37
I36
aI7
aI0
aa(lp38
I48
aI14
aI0
aa(lp39
I25
aI6
aI0
aa(lp40
I25
aI8
aI0
aa(lp41
I29
aI13
aI0
aa(lp42
I16
aI6
aI0
aa(lp43
I49
aI0
aI0
aa(lp44
I39
aI20
aI0
aa(lp45
I34
aI9
aI0
aa(lp46
I42
aI27
aI0
aa(lp47
I36
aI9
aI0
aa(lp48
I29
aI8
aI0
aa(lp49
I19
aI0
aI0
aa(lp50
I32
aI5
aI0
aa(lp51
I41
aI8
aI0
aa(lp52
I17
aI0
aI0
aa(lp53
I44
aI21
aI0
aa(lp54
I18
aI4
aI0
aa(lp55
I32
aI2
aI0
aa(lp56
I33
aI5
aI0
aa(lp57
I37
aI26
aI0
aa(lp58
I32
aI0
aI0
aa(lp59
I33
aI1
aI0
aa(lp60
I22
aI5
aI0
aa(lp61
I39
aI5
aI0
aa(lp62
I19
aI10
aI0
aa(lp63
I28
aI5
aI0
aa(lp64
I19
aI7
aI0
aa(lp65
I40
aI0
aI0
aa(lp66
I29
aI17
aI0
aa(lp67
I17
aI0
aI0
aa(lp68
I32
aI5
aI0
aa(lp69
I24
aI10
aI0
aa.