(lp1
(lp2
I650
aI0
aI0
aa(lp3
I1835
aI0
aI0
aa(lp4
I2225
aI0
aI0
aa(lp5
I1679
aI0
aI0
aa(lp6
I814
aI0
aI0
aa(lp7
I2086
aI0
aI0
aa(lp8
I822
aI0
aI0
aa(lp9
I705
aI0
aI0
aa(lp10
I1052
aI0
aI0
aa(lp11
I881
aI0
aI0
aa(lp12
I641
aI0
aI0
aa(lp13
I702
aI0
aI0
aa(lp14
I1360
aI0
aI0
aa(lp15
I1079
aI0
aI0
aa(lp16
I853
aI0
aI0
aa(lp17
I1477
aI0
aI0
aa(lp18
I368
aI0
aI0
aa(lp19
I2287
aI0
aI0
aa(lp20
I387
aI0
aI0
aa(lp21
I1660
aI0
aI0
aa(lp22
I1601
aI0
aI0
aa(lp23
I1016
aI0
aI0
aa(lp24
I1419
aI0
aI0
aa(lp25
I1083
aI0
aI0
aa(lp26
I1690
aI0
aI0
aa(lp27
I1374
aI0
aI0
aa(lp28
I2050
aI0
aI0
aa(lp29
I905
aI0
aI0
aa(lp30
I759
aI0
aI0
aa(lp31
I667
aI0
aI0
aa(lp32
I1031
aI0
aI0
aa(lp33
I1886
aI0
aI0
aa(lp34
I746
aI0
aI0
aa(lp35
I2141
aI0
aI0
aa(lp36
I876
aI0
aI0
aa(lp37
I913
aI0
aI0
aa(lp38
I487
aI0
aI0
aa(lp39
I1077
aI0
aI0
aa(lp40
I486
aI0
aI0
aa(lp41
I772
aI0
aI0
aa(lp42
I1436
aI0
aI0
aa(lp43
I1928
aI0
aI0
aa(lp44
I1243
aI0
aI0
aa(lp45
I724
aI0
aI0
aa(lp46
I1484
aI0
aI0
aa(lp47
I1685
aI0
aI0
aa(lp48
I689
aI0
aI0
aa(lp49
I1900
aI0
aI0
aa(lp50
I1747
aI0
aI0
aa(lp51
I1555
aI0
aI0
aa(lp52
I926
aI0
aI0
aa(lp53
I560
aI0
aI0
aa(lp54
I724
aI0
aI0
aa(lp55
I1214
aI0
aI0
aa(lp56
I1716
aI0
aI0
aa(lp57
I1233
aI0
aI0
aa(lp58
I950
aI0
aI0
aa(lp59
I1734
aI0
aI0
aa(lp60
I1137
aI0
aI0
aa(lp61
I753
aI0
aI0
aa(lp62
I835
aI0
aI0
aa(lp63
I1104
aI0
aI0
aa(lp64
I1833
aI0
aI0
aa(lp65
I1783
aI0
aI0
aa(lp66
I777
aI0
aI0
aa(lp67
I2275
aI0
aI0
aa(lp68
I642
aI0
aI0
aa.