(lp1
(lp2
I322
aI57
aI0
aa(lp3
I22
aI12
aI0
aa(lp4
I58
aI30
aI0
aa(lp5
I33
aI14
aI0
aa(lp6
I34
aI14
aI0
aa(lp7
I57
aI21
aI0
aa(lp8
I39
aI17
aI0
aa(lp9
I275
aI46
aI0
aa(lp10
I38
aI12
aI0
aa(lp11
I59
aI16
aI0
aa(lp12
I23
aI6
aI0
aa(lp13
I39
aI18
aI0
aa(lp14
I49
aI35
aI0
aa(lp15
I40
aI9
aI0
aa(lp16
I51
aI14
aI0
aa(lp17
I44
aI17
aI0
aa(lp18
I41
aI24
aI0
aa(lp19
I77
aI28
aI0
aa(lp20
I44
aI13
aI0
aa(lp21
I28
aI12
aI0
aa(lp22
I40
aI21
aI0
aa(lp23
I34
aI18
aI0
aa(lp24
I25
aI14
aI0
aa(lp25
I58
aI23
aI0
aa(lp26
I59
aI27
aI0
aa(lp27
I36
aI26
aI0
aa(lp28
I31
aI12
aI0
aa(lp29
I34
aI19
aI0
aa(lp30
I61
aI15
aI0
aa(lp31
I44
aI8
aI0
aa(lp32
I30
aI8
aI0
aa(lp33
I26
aI4
aI0
aa(lp34
I33
aI9
aI0
aa(lp35
I108
aI29
aI0
aa(lp36
I42
aI23
aI0
aa(lp37
I333
aI55
aI0
aa(lp38
I35
aI8
aI0
aa(lp39
I45
aI17
aI0
aa(lp40
I27
aI10
aI0
aa(lp41
I15
aI7
aI0
aa(lp42
I202
aI77
aI0
aa(lp43
I44
aI30
aI0
aa(lp44
I45
aI8
aI0
aa(lp45
I40
aI22
aI0
aa(lp46
I36
aI24
aI0
aa(lp47
I39
aI11
aI0
aa(lp48
I49
aI28
aI0
aa(lp49
I48
aI18
aI0
aa(lp50
I49
aI20
aI0
aa(lp51
I60
aI30
aI0
aa(lp52
I45
aI29
aI0
aa(lp53
I46
aI10
aI0
aa(lp54
I20
aI9
aI0
aa(lp55
I73
aI31
aI0
aa(lp56
I48
aI24
aI0
aa(lp57
I42
aI11
aI0
aa(lp58
I35
aI12
aI0
aa(lp59
I27
aI7
aI0
aa(lp60
I53
aI21
aI0
aa(lp61
I44
aI21
aI0
aa(lp62
I31
aI13
aI0
aa(lp63
I31
aI18
aI0
aa(lp64
I40
aI8
aI0
aa(lp65
I38
aI15
aI0
aa(lp66
I41
aI12
aI0
aa(lp67
I588
aI102
aI0
aa(lp68
I49
aI15
aI0
aa(lp69
I39
aI9
aI0
aa.